target datalayout = "e-m:e-p270:32:32-p271:32:32-p272:64:64-i64:64-i128:128-f80:128-n8:16:32:64-S128"
target triple = "x86_64-pc-linux-gnu"

; Function Attrs: inlinehint nounwind uwtable
define internal zeroext i16 @DatumGetUInt16(i64 noundef %0) #2 {
  %2 = alloca i64, align 8
  store i64 %0, ptr %2, align 8
  %3 = load i64, ptr %2, align 8
  %4 = trunc i64 %3 to i16
  ret i16 %4
}

; Function Attrs: inlinehint nounwind uwtable
define internal i64 @Int32GetDatum(i32 noundef %0) #2 {
  %2 = alloca i32, align 4
  store i32 %0, ptr %2, align 4
  %3 = load i32, ptr %2, align 4
  %4 = sext i32 %3 to i64
  ret i64 %4
}

; Function Attrs: nounwind uwtable
define dso_local zeroext i16 @gisttranslatecmptype(i32 noundef %0, i32 noundef %1, i32 noundef %2) #0 {
  %4 = alloca i16, align 2
  %5 = alloca i32, align 4
  %6 = alloca i32, align 4
  %7 = alloca i32, align 4
  %8 = alloca i32, align 4
  %9 = alloca i64, align 8
  %10 = alloca i32, align 4
  store i32 %0, ptr %5, align 4
  store i32 %1, ptr %6, align 4
  store i32 %2, ptr %7, align 4
  call void @llvm.lifetime.start.p0(i64 4, ptr %8) #8
  call void @llvm.lifetime.start.p0(i64 8, ptr %9) #8
  %11 = load i32, ptr %6, align 4
  %12 = load i32, ptr %7, align 4
  %13 = load i32, ptr %7, align 4
  %14 = call i32 @get_opfamily_proc(i32 noundef %11, i32 noundef %12, i32 noundef %13, i16 noundef signext 12)
  store i32 %14, ptr %8, align 4
  %15 = load i32, ptr %8, align 4
  %16 = icmp ne i32 %15, 0
  br i1 %16, label %18, label %17

17:                                               ; preds = %3
  store i16 0, ptr %4, align 2
  store i32 1, ptr %10, align 4
  br label %25

18:                                               ; preds = %3
  %19 = load i32, ptr %8, align 4
  %20 = load i32, ptr %5, align 4
  %21 = call i64 @Int32GetDatum(i32 noundef %20)
  %22 = call i64 @OidFunctionCall1Coll(i32 noundef %19, i32 noundef 0, i64 noundef %21)
  store i64 %22, ptr %9, align 8
  %23 = load i64, ptr %9, align 8
  %24 = call zeroext i16 @DatumGetUInt16(i64 noundef %23)
  store i16 %24, ptr %4, align 2
  store i32 1, ptr %10, align 4
  br label %25

25:                                               ; preds = %18, %17
  call void @llvm.lifetime.end.p0(i64 8, ptr %9) #8
  call void @llvm.lifetime.end.p0(i64 4, ptr %8) #8
  %26 = load i16, ptr %4, align 2
  ret i16 %26
}