; Function Attrs: nounwind uwtable
define dso_local zeroext i16 @gisttranslatecmptype(i32 noundef %0, i32 noundef %1, i32 noundef %2) local_unnamed_addr #0 {
  %4 = tail call i32 @get_opfamily_proc(i32 noundef %1, i32 noundef %2, i32 noundef %2, i16 noundef signext 12) #11
  %.not = icmp eq i32 %4, 0
  br i1 %.not, label %9, label %5

5:                                                ; preds = %3
  %6 = sext i32 %0 to i64
  %7 = tail call i64 @OidFunctionCall1Coll(i32 noundef %4, i32 noundef 0, i64 noundef %6) #11
  %8 = trunc i64 %7 to i16
  br label %9

9:                                                ; preds = %3, %5
  %.0 = phi i16 [ %8, %5 ], [ 0, %3 ]
  ret i16 %.0
}